; Function Attrs: mustprogress uwtable
define hidden void @_ZN10ODDLParser13OpenDDLParser9setBufferERKSt6vectorIcSaIcEE(ptr noundef nonnull align 8 dereferenceable(88) %0, ptr noundef nonnull readonly align 8 captures(none) dereferenceable(24) %1) local_unnamed_addr #6 align 2 {
  %3 = getelementptr inbounds nuw i8, ptr %0, i64 32
  tail call void @_ZNSt6vectorIcSaIcEE6resizeEm(ptr noundef nonnull align 8 dereferenceable(24) %3, i64 noundef 0)
  %4 = getelementptr inbounds nuw i8, ptr %0, i64 80
  %5 = load ptr, ptr %4, align 8
  %6 = icmp eq ptr %5, null
  br i1 %6, label %_ZN10ODDLParser13OpenDDLParser5clearEv.exit, label %7

7:                                                ; preds = %2
  tail call void @_ZN10ODDLParser7ContextD1Ev(ptr noundef nonnull align 8 dereferenceable(8) %5) #29
  tail call void @_ZdlPvm(ptr noundef nonnull %5, i64 noundef 8) #30
  br label %_ZN10ODDLParser13OpenDDLParser5clearEv.exit

_ZN10ODDLParser13OpenDDLParser5clearEv.exit:      ; preds = %2, %7
  store ptr null, ptr %4, align 8
  %8 = getelementptr inbounds nuw i8, ptr %1, i64 8
  %9 = load ptr, ptr %8, align 8
  %10 = load ptr, ptr %1, align 8
  %11 = ptrtoint ptr %9 to i64
  %12 = ptrtoint ptr %10 to i64
  %13 = sub i64 %11, %12
  tail call void @_ZNSt6vectorIcSaIcEE6resizeEm(ptr noundef nonnull align 8 dereferenceable(24) %3, i64 noundef %13)
  %14 = load ptr, ptr %1, align 8
  %15 = load ptr, ptr %8, align 8
  %.not.i.i.i.i.i = icmp eq ptr %15, %14
  br i1 %.not.i.i.i.i.i, label %_ZSt4copyIN9__gnu_cxx17__normal_iteratorIPKcSt6vectorIcSaIcEEEENS1_IPcS6_EEET0_T_SB_SA_.exit, label %16

16:                                               ; preds = %_ZN10ODDLParser13OpenDDLParser5clearEv.exit
  %17 = ptrtoint ptr %15 to i64
  %18 = ptrtoint ptr %14 to i64
  %19 = sub i64 %17, %18
  %20 = load ptr, ptr %3, align 8
  tail call void @llvm.memmove.p0.p0.i64(ptr align 1 %20, ptr align 1 %14, i64 %19, i1 false)
  br label %_ZSt4copyIN9__gnu_cxx17__normal_iteratorIPKcSt6vectorIcSaIcEEEENS1_IPcS6_EEET0_T_SB_SA_.exit

_ZSt4copyIN9__gnu_cxx17__normal_iteratorIPKcSt6vectorIcSaIcEEEENS1_IPcS6_EEET0_T_SB_SA_.exit: ; preds = %_ZN10ODDLParser13OpenDDLParser5clearEv.exit, %16
  ret void
}